EXPORTS
    CAHook_CreateFileA @1 DATA
    CAHook_CreateFileW @2 DATA
    CAHook_GetProcAddress @3 DATA
    CAHook_OpenProcess @4 DATA
    _Z11InstallHookPKcS0_PvRSt6vectorIhSaIhEE @5
    _Z13UninstallHookPKcS0_RKSt6vectorIhSaIhEE @6
    _Z14GetCharptrSizePKc @7
    _Z14UninstallHooksv @8
    _Z15InstallHook_GPAPKcS0_PvRSt6vectorIhSaIhEERPU7stdcallFivE @9
    _Z17UninstallHook_GPARKSt6vectorIhSaIhEEPU7stdcallFivE @10
    _Z18CreateFileA_HookedPKcmmP20_SECURITY_ATTRIBUTESmmPv @11
    _Z18CreateFileW_HookedPKwmmP20_SECURITY_ATTRIBUTESmmPv @12
    _Z18OpenProcess_Hookedmim = _Z18OpenProcess_Hookedmim@12 @13
    _Z18OpenProcess_Hookedmim@12 @14
    _Z21GetProcAddress_HookedP11HINSTANCE__PKc @15
    _Z7ReadMapPvS_j @16
    _Z8WriteMapPvPKvj @17
    _Z9CreateMapRKNSt7__cxx1112basic_stringIcSt11char_traitsIcESaIcEEEjm @18
    _Z9DLLThreadv @19
    _Z9DeleteMapPv @20
    _ZNSt6thread11_State_implINS_8_InvokerISt5tupleIJPFvvEEEEEE6_M_runEv @21
    _ZNSt6thread11_State_implINS_8_InvokerISt5tupleIJPFvvEEEEEED0Ev @22
    _ZNSt6thread11_State_implINS_8_InvokerISt5tupleIJPFvvEEEEEED1Ev @23
    _ZNSt6vectorIhSaIhEE17_M_default_appendEj @24
    _ZTINSt6thread11_State_implINS_8_InvokerISt5tupleIJPFvvEEEEEEE @25 DATA
    _ZTINSt6thread6_StateE @26 DATA
    _ZTSNSt6thread11_State_implINS_8_InvokerISt5tupleIJPFvvEEEEEEE @27 DATA
    _ZTSNSt6thread6_StateE @28 DATA
    _ZTVNSt6thread11_State_implINS_8_InvokerISt5tupleIJPFvvEEEEEEE @29 DATA
    pTargetFunction_GPA @30 DATA
